; Function Attrs: mustprogress uwtable
define internal void @_ZNK19OpenColorIO_v2_4dev12_GLOBAL__N_114MatrixOffsetOp20extractGpuShaderInfoERSt10shared_ptrINS_16GpuShaderCreatorEE(ptr nocapture noundef nonnull readonly align 8 dereferenceable(24) %this, ptr noundef nonnull align 8 dereferenceable(16) %shaderCreator) unnamed_addr #3 align 2 personality ptr @__gxx_personality_v0 {
entry:
  %data = alloca %"class.std::shared_ptr.37", align 8
  %0 = getelementptr inbounds i8, ptr %this, i64 8
  %this.val = load ptr, ptr %0, align 8, !noalias !37
  %1 = getelementptr inbounds i8, ptr %this, i64 16
  %this.val2 = load ptr, ptr %1, align 8, !noalias !37
  call fastcc void @_ZNK19OpenColorIO_v2_4dev12_GLOBAL__N_114MatrixOffsetOp10matrixDataEv(ptr noalias nonnull align 8 %data, ptr %this.val, ptr %this.val2)
  %2 = load ptr, ptr %data, align 8
  %m_direction.i = getelementptr inbounds i8, ptr %2, i64 256
  %3 = load i32, ptr %m_direction.i, align 8
  %cmp = icmp eq i32 %3, 1
  br i1 %cmp, label %if.then, label %if.end

if.then:                                          ; preds = %entry
  %exception = tail call ptr @__cxa_allocate_exception(i64 16) #20
  invoke void @_ZN19OpenColorIO_v2_4dev9ExceptionC1EPKc(ptr noundef nonnull align 8 dereferenceable(16) %exception, ptr noundef nonnull @.str.2)
          to label %invoke.cont unwind label %lpad

invoke.cont:                                      ; preds = %if.then
  invoke void @__cxa_throw(ptr nonnull %exception, ptr nonnull @_ZTIN19OpenColorIO_v2_4dev9ExceptionE, ptr nonnull @_ZN19OpenColorIO_v2_4dev9ExceptionD1Ev) #21
          to label %unreachable unwind label %lpad3

lpad:                                             ; preds = %if.then
  %4 = landingpad { ptr, i32 }
          cleanup
  tail call void @__cxa_free_exception(ptr %exception) #20
  br label %ehcleanup

lpad3:                                            ; preds = %if.end, %invoke.cont
  %5 = landingpad { ptr, i32 }
          cleanup
  br label %ehcleanup

if.end:                                           ; preds = %entry
  invoke void @_ZN19OpenColorIO_v2_4dev25GetMatrixGPUShaderProgramERSt10shared_ptrINS_16GpuShaderCreatorEERS0_IKNS_12MatrixOpDataEE(ptr noundef nonnull align 8 dereferenceable(16) %shaderCreator, ptr noundef nonnull align 8 dereferenceable(16) %data)
          to label %invoke.cont4 unwind label %lpad3

invoke.cont4:                                     ; preds = %if.end
  %_M_refcount.i.i = getelementptr inbounds i8, ptr %data, i64 8
  %6 = load ptr, ptr %_M_refcount.i.i, align 8
  %cmp.not.i.i.i = icmp eq ptr %6, null
  br i1 %cmp.not.i.i.i, label %_ZNSt10shared_ptrIKN19OpenColorIO_v2_4dev12MatrixOpDataEED2Ev.exit, label %if.then.i.i.i

if.then.i.i.i:                                    ; preds = %invoke.cont4
  %_M_use_count.i.i.i.i = getelementptr inbounds i8, ptr %6, i64 8
  %7 = load atomic i64, ptr %_M_use_count.i.i.i.i acquire, align 8
  %cmp.i.i.i.i = icmp eq i64 %7, 4294967297
  %8 = trunc i64 %7 to i32
  br i1 %cmp.i.i.i.i, label %if.then.i.i.i.i, label %if.end.i.i.i.i

if.then.i.i.i.i:                                  ; preds = %if.then.i.i.i
  store i32 0, ptr %_M_use_count.i.i.i.i, align 8
  %_M_weak_count.i.i.i.i = getelementptr inbounds i8, ptr %6, i64 12
  store i32 0, ptr %_M_weak_count.i.i.i.i, align 4
  %vtable.i.i.i.i = load ptr, ptr %6, align 8
  %vfn.i.i.i.i = getelementptr inbounds i8, ptr %vtable.i.i.i.i, i64 16
  %9 = load ptr, ptr %vfn.i.i.i.i, align 8
  call void %9(ptr noundef nonnull align 8 dereferenceable(16) %6) #20
  br label %if.end8.sink.split.i.i.i.i

if.end.i.i.i.i:                                   ; preds = %if.then.i.i.i
  %10 = load i8, ptr @__libc_single_threaded, align 1
  %tobool.i.not.i.i.i.i = icmp eq i8 %10, 0
  br i1 %tobool.i.not.i.i.i.i, label %if.else.i.i.i.i.i, label %if.then.i.i.i.i.i

if.then.i.i.i.i.i:                                ; preds = %if.end.i.i.i.i
  %add.i.i.i.i.i = add nsw i32 %8, -1
  store i32 %add.i.i.i.i.i, ptr %_M_use_count.i.i.i.i, align 4
  br label %_ZN9__gnu_cxx27__exchange_and_add_dispatchEPii.exit.i.i.i.i

if.else.i.i.i.i.i:                                ; preds = %if.end.i.i.i.i
  %11 = atomicrmw volatile add ptr %_M_use_count.i.i.i.i, i32 -1 acq_rel, align 4
  br label %_ZN9__gnu_cxx27__exchange_and_add_dispatchEPii.exit.i.i.i.i

_ZN9__gnu_cxx27__exchange_and_add_dispatchEPii.exit.i.i.i.i: ; preds = %if.else.i.i.i.i.i, %if.then.i.i.i.i.i
  %retval.i.0.i.i.i.i = phi i32 [ %8, %if.then.i.i.i.i.i ], [ %11, %if.else.i.i.i.i.i ]
  %cmp6.i.i.i.i = icmp eq i32 %retval.i.0.i.i.i.i, 1
  br i1 %cmp6.i.i.i.i, label %if.then7.i.i.i.i, label %_ZNSt10shared_ptrIKN19OpenColorIO_v2_4dev12MatrixOpDataEED2Ev.exit

if.then7.i.i.i.i:                                 ; preds = %_ZN9__gnu_cxx27__exchange_and_add_dispatchEPii.exit.i.i.i.i
  %vtable.i.i.i.i.i.i = load ptr, ptr %6, align 8
  %vfn.i.i.i.i.i.i = getelementptr inbounds i8, ptr %vtable.i.i.i.i.i.i, i64 16
  %12 = load ptr, ptr %vfn.i.i.i.i.i.i, align 8
  call void %12(ptr noundef nonnull align 8 dereferenceable(16) %6) #20
  %_M_weak_count.i.i.i.i.i.i = getelementptr inbounds i8, ptr %6, i64 12
  %13 = load i8, ptr @__libc_single_threaded, align 1
  %tobool.i.not.i.i.i.i.i.i = icmp eq i8 %13, 0
  br i1 %tobool.i.not.i.i.i.i.i.i, label %if.else.i.i.i.i.i.i.i, label %if.then.i.i.i.i.i.i.i

if.then.i.i.i.i.i.i.i:                            ; preds = %if.then7.i.i.i.i
  %14 = load i32, ptr %_M_weak_count.i.i.i.i.i.i, align 4
  %add.i.i.i.i.i.i.i = add nsw i32 %14, -1
  store i32 %add.i.i.i.i.i.i.i, ptr %_M_weak_count.i.i.i.i.i.i, align 4
  br label %_ZN9__gnu_cxx27__exchange_and_add_dispatchEPii.exit.i.i.i.i.i.i

if.else.i.i.i.i.i.i.i:                            ; preds = %if.then7.i.i.i.i
  %15 = atomicrmw volatile add ptr %_M_weak_count.i.i.i.i.i.i, i32 -1 acq_rel, align 4
  br label %_ZN9__gnu_cxx27__exchange_and_add_dispatchEPii.exit.i.i.i.i.i.i

_ZN9__gnu_cxx27__exchange_and_add_dispatchEPii.exit.i.i.i.i.i.i: ; preds = %if.else.i.i.i.i.i.i.i, %if.then.i.i.i.i.i.i.i
  %retval.i.0.i.i.i.i.i.i = phi i32 [ %14, %if.then.i.i.i.i.i.i.i ], [ %15, %if.else.i.i.i.i.i.i.i ]
  %cmp.i.i.i.i.i.i = icmp eq i32 %retval.i.0.i.i.i.i.i.i, 1
  br i1 %cmp.i.i.i.i.i.i, label %if.end8.sink.split.i.i.i.i, label %_ZNSt10shared_ptrIKN19OpenColorIO_v2_4dev12MatrixOpDataEED2Ev.exit

if.end8.sink.split.i.i.i.i:                       ; preds = %_ZN9__gnu_cxx27__exchange_and_add_dispatchEPii.exit.i.i.i.i.i.i, %if.then.i.i.i.i
  %vtable2.i.i.i.i.i.i = load ptr, ptr %6, align 8
  %vfn3.i.i.i.i.i.i = getelementptr inbounds i8, ptr %vtable2.i.i.i.i.i.i, i64 24
  %16 = load ptr, ptr %vfn3.i.i.i.i.i.i, align 8
  call void %16(ptr noundef nonnull align 8 dereferenceable(16) %6) #20
  br label %_ZNSt10shared_ptrIKN19OpenColorIO_v2_4dev12MatrixOpDataEED2Ev.exit

_ZNSt10shared_ptrIKN19OpenColorIO_v2_4dev12MatrixOpDataEED2Ev.exit: ; preds = %invoke.cont4, %_ZN9__gnu_cxx27__exchange_and_add_dispatchEPii.exit.i.i.i.i, %_ZN9__gnu_cxx27__exchange_and_add_dispatchEPii.exit.i.i.i.i.i.i, %if.end8.sink.split.i.i.i.i
  ret void

ehcleanup:                                        ; preds = %lpad3, %lpad
  %.pn = phi { ptr, i32 } [ %5, %lpad3 ], [ %4, %lpad ]
  call void @_ZNSt10shared_ptrIKN19OpenColorIO_v2_4dev12MatrixOpDataEED2Ev(ptr noundef nonnull align 8 dereferenceable(16) %data) #20
  resume { ptr, i32 } %.pn

unreachable:                                      ; preds = %invoke.cont
  unreachable
}